target datalayout = "e-m:e-p270:32:32-p271:32:32-p272:64:64-i64:64-i128:128-f80:128-n8:16:32:64-S128"
target triple = "x86_64-pc-linux-gnu"

%union.pthread_mutex_t = type { %struct.__pthread_mutex_s }
%struct.__pthread_mutex_s = type { i32, i32, i32, i32, i32, i16, i16, %struct.__pthread_internal_list }
%struct.__pthread_internal_list = type { ptr, ptr }
%struct.sigaction = type { %union.anon, %struct.__sigset_t, i32, ptr }
%union.anon = type { ptr }
%struct.__sigset_t = type { [16 x i64] }
%"class.std::lock_guard" = type { ptr }
%"class.std::__mutex_base" = type { %union.pthread_mutex_t }

@_ZN12_GLOBAL__N_121gCrashRecoveryEnabledE = internal global i8 0, align 1
@_ZZN12_GLOBAL__N_128getCrashRecoveryContextMutexEvE25CrashRecoveryContextMutex = internal global { %union.pthread_mutex_t } zeroinitializer, align 8
@_ZL7Signals = internal constant [6 x i32] [i32 6, i32 7, i32 8, i32 4, i32 11, i32 5], align 16
@_ZL11PrevActions = internal global [6 x %struct.sigaction] zeroinitializer, align 16

; Function Attrs: mustprogress nounwind uwtable
define internal noundef i32 @_ZL18__gthread_active_pv() #0 {
  ret i32 1
}

; Function Attrs: mustprogress nounwind uwtable
define internal noundef i32 @_ZL22__gthread_mutex_unlockP15pthread_mutex_t(ptr noundef %0) #0 {
  %2 = alloca i32, align 4
  %3 = alloca ptr, align 8
  store ptr %0, ptr %3, align 8
  %4 = call noundef i32 @_ZL18__gthread_active_pv()
  %5 = icmp ne i32 %4, 0
  br i1 %5, label %6, label %9

6:                                                ; preds = %1
  %7 = load ptr, ptr %3, align 8
  %8 = call i32 @pthread_mutex_unlock(ptr noundef %7) #13
  store i32 %8, ptr %2, align 4
  br label %10

9:                                                ; preds = %1
  store i32 0, ptr %2, align 4
  br label %10

10:                                               ; preds = %9, %6
  %11 = load i32, ptr %2, align 4
  ret i32 %11
}

; Function Attrs: mustprogress nounwind uwtable
define internal noundef i32 @_ZL20__gthread_mutex_lockP15pthread_mutex_t(ptr noundef %0) #0 {
  %2 = alloca i32, align 4
  %3 = alloca ptr, align 8
  store ptr %0, ptr %3, align 8
  %4 = call noundef i32 @_ZL18__gthread_active_pv()
  %5 = icmp ne i32 %4, 0
  br i1 %5, label %6, label %9

6:                                                ; preds = %1
  %7 = load ptr, ptr %3, align 8
  %8 = call i32 @pthread_mutex_lock(ptr noundef %7) #13
  store i32 %8, ptr %2, align 4
  br label %10

9:                                                ; preds = %1
  store i32 0, ptr %2, align 4
  br label %10

10:                                               ; preds = %9, %6
  %11 = load i32, ptr %2, align 4
  ret i32 %11
}

; Function Attrs: mustprogress nounwind uwtable
define linkonce_odr hidden void @_ZNSt5mutex6unlockEv(ptr noundef nonnull align 8 dereferenceable(40) %0) #0 comdat align 2 {
  %2 = alloca ptr, align 8
  store ptr %0, ptr %2, align 8
  %3 = load ptr, ptr %2, align 8
  %4 = getelementptr inbounds nuw %"class.std::__mutex_base", ptr %3, i32 0, i32 0
  %5 = call noundef i32 @_ZL22__gthread_mutex_unlockP15pthread_mutex_t(ptr noundef %4)
  ret void
}

; Function Attrs: mustprogress nounwind uwtable
define linkonce_odr hidden void @_ZNSt5mutex4lockEv(ptr noundef nonnull align 8 dereferenceable(40) %0) #0 comdat align 2 {
  %2 = alloca ptr, align 8
  %3 = alloca i32, align 4
  store ptr %0, ptr %2, align 8
  %4 = load ptr, ptr %2, align 8
  %5 = getelementptr inbounds nuw %"class.std::__mutex_base", ptr %4, i32 0, i32 0
  %6 = call noundef i32 @_ZL20__gthread_mutex_lockP15pthread_mutex_t(ptr noundef %5)
  store i32 %6, ptr %3, align 4
  %7 = load i32, ptr %3, align 4
  %8 = icmp ne i32 %7, 0
  br i1 %8, label %9, label %11

9:                                                ; preds = %1
  %10 = load i32, ptr %3, align 4
  call void @_ZSt20__throw_system_errori(i32 noundef %10) #17
  unreachable

11:                                               ; preds = %1
  ret void
}

; Function Attrs: mustprogress nounwind uwtable
define linkonce_odr hidden void @_ZNSt10lock_guardISt5mutexED2Ev(ptr noundef nonnull align 8 dereferenceable(8) %0) unnamed_addr #0 comdat align 2 {
  %2 = alloca ptr, align 8
  store ptr %0, ptr %2, align 8
  %3 = load ptr, ptr %2, align 8
  %4 = getelementptr inbounds nuw %"class.std::lock_guard", ptr %3, i32 0, i32 0
  %5 = load ptr, ptr %4, align 8
  call void @_ZNSt5mutex6unlockEv(ptr noundef nonnull align 8 dereferenceable(40) %5)
  ret void
}

; Function Attrs: mustprogress nounwind uwtable
define internal void @_ZL32installExceptionOrSignalHandlersv() #0 {
  %1 = alloca %struct.sigaction, align 8
  %2 = alloca i32, align 4
  %3 = getelementptr inbounds nuw %struct.sigaction, ptr %1, i32 0, i32 0
  store ptr @_ZL26CrashRecoverySignalHandleri, ptr %3, align 8
  %4 = getelementptr inbounds nuw %struct.sigaction, ptr %1, i32 0, i32 2
  store i32 0, ptr %4, align 8
  %5 = getelementptr inbounds nuw %struct.sigaction, ptr %1, i32 0, i32 1
  %6 = call i32 @sigemptyset(ptr noundef %5) #13
  store i32 0, ptr %2, align 4
  br label %7

7:                                                ; preds = %19, %0
  %8 = load i32, ptr %2, align 4
  %9 = icmp ne i32 %8, 6
  br i1 %9, label %10, label %22

10:                                               ; preds = %7
  %11 = load i32, ptr %2, align 4
  %12 = zext i32 %11 to i64
  %13 = getelementptr inbounds [6 x i32], ptr @_ZL7Signals, i64 0, i64 %12
  %14 = load i32, ptr %13, align 4
  %15 = load i32, ptr %2, align 4
  %16 = zext i32 %15 to i64
  %17 = getelementptr inbounds [6 x %struct.sigaction], ptr @_ZL11PrevActions, i64 0, i64 %16
  %18 = call i32 @sigaction(i32 noundef %14, ptr noundef %1, ptr noundef %17) #13
  br label %19

19:                                               ; preds = %10
  %20 = load i32, ptr %2, align 4
  %21 = add i32 %20, 1
  store i32 %21, ptr %2, align 4
  br label %7, !llvm.loop !6

22:                                               ; preds = %7
  ret void
}

; Function Attrs: mustprogress nounwind uwtable
define linkonce_odr hidden void @_ZNSt10lock_guardISt5mutexEC2ERS0_(ptr noundef nonnull align 8 dereferenceable(8) %0, ptr noundef nonnull align 8 dereferenceable(40) %1) unnamed_addr #0 comdat align 2 {
  %3 = alloca ptr, align 8
  %4 = alloca ptr, align 8
  store ptr %0, ptr %3, align 8
  store ptr %1, ptr %4, align 8
  %5 = load ptr, ptr %3, align 8
  %6 = getelementptr inbounds nuw %"class.std::lock_guard", ptr %5, i32 0, i32 0
  %7 = load ptr, ptr %4, align 8
  store ptr %7, ptr %6, align 8
  %8 = getelementptr inbounds nuw %"class.std::lock_guard", ptr %5, i32 0, i32 0
  %9 = load ptr, ptr %8, align 8
  call void @_ZNSt5mutex4lockEv(ptr noundef nonnull align 8 dereferenceable(40) %9)
  ret void
}

; Function Attrs: mustprogress nounwind uwtable
define internal noundef nonnull align 8 dereferenceable(40) ptr @_ZN12_GLOBAL__N_128getCrashRecoveryContextMutexEv() #0 {
  ret ptr @_ZZN12_GLOBAL__N_128getCrashRecoveryContextMutexEvE25CrashRecoveryContextMutex
}

; Function Attrs: mustprogress nounwind uwtable
define dso_local void @_ZN4llvm20CrashRecoveryContext6EnableEv() #0 align 2 {
  %1 = alloca %"class.std::lock_guard", align 8
  %2 = alloca i32, align 4
  %3 = call noundef nonnull align 8 dereferenceable(40) ptr @_ZN12_GLOBAL__N_128getCrashRecoveryContextMutexEv()
  call void @_ZNSt10lock_guardISt5mutexEC2ERS0_(ptr noundef nonnull align 8 dereferenceable(8) %1, ptr noundef nonnull align 8 dereferenceable(40) %3)
  %4 = load i8, ptr @_ZN12_GLOBAL__N_121gCrashRecoveryEnabledE, align 1
  %5 = trunc i8 %4 to i1
  br i1 %5, label %6, label %7

6:                                                ; preds = %0
  store i32 1, ptr %2, align 4
  br label %8

7:                                                ; preds = %0
  store i8 1, ptr @_ZN12_GLOBAL__N_121gCrashRecoveryEnabledE, align 1
  call void @_ZL32installExceptionOrSignalHandlersv()
  store i32 0, ptr %2, align 4
  br label %8

8:                                                ; preds = %7, %6
  call void @_ZNSt10lock_guardISt5mutexED2Ev(ptr noundef nonnull align 8 dereferenceable(8) %1) #13
  %9 = load i32, ptr %2, align 4
  switch i32 %9, label %11 [
    i32 0, label %10
    i32 1, label %10
  ]

10:                                               ; preds = %8, %8
  ret void

11:                                               ; preds = %8
  unreachable
}