; Function Attrs: mustprogress nounwind uwtable
define dso_local void @_ZN4llvm20CrashRecoveryContext6EnableEv() local_unnamed_addr #3 align 2 {
  %1 = alloca %struct.sigaction, align 8
  %2 = tail call noundef i32 @pthread_mutex_lock(ptr noundef nonnull @_ZZN12_GLOBAL__N_128getCrashRecoveryContextMutexEvE25CrashRecoveryContextMutex) #19
  %.not.i.i = icmp eq i32 %2, 0
  br i1 %.not.i.i, label %_ZNSt10lock_guardISt5mutexEC2ERS0_.exit, label %3

3:                                                ; preds = %0
  tail call void @_ZSt20__throw_system_errori(i32 noundef %2) #18
  unreachable

_ZNSt10lock_guardISt5mutexEC2ERS0_.exit:          ; preds = %0
  %.b1 = load i1, ptr @_ZN12_GLOBAL__N_121gCrashRecoveryEnabledE, align 1
  br i1 %.b1, label %13, label %4

4:                                                ; preds = %_ZNSt10lock_guardISt5mutexEC2ERS0_.exit
  store i1 true, ptr @_ZN12_GLOBAL__N_121gCrashRecoveryEnabledE, align 1
  call void @llvm.lifetime.start.p0(i64 152, ptr nonnull %1)
  store ptr @_ZL26CrashRecoverySignalHandleri, ptr %1, align 8
  %5 = getelementptr inbounds nuw i8, ptr %1, i64 136
  store i32 0, ptr %5, align 8
  %6 = getelementptr inbounds nuw i8, ptr %1, i64 8
  %7 = call i32 @sigemptyset(ptr noundef nonnull %6) #19
  br label %8

8:                                                ; preds = %8, %4
  %indvars.iv.i = phi i64 [ 0, %4 ], [ %indvars.iv.next.i, %8 ]
  %9 = getelementptr inbounds [6 x i32], ptr @_ZL7Signals, i64 0, i64 %indvars.iv.i
  %10 = load i32, ptr %9, align 4
  %11 = getelementptr inbounds [6 x %struct.sigaction], ptr @_ZL11PrevActions, i64 0, i64 %indvars.iv.i
  %12 = call i32 @sigaction(i32 noundef %10, ptr noundef nonnull %1, ptr noundef nonnull %11) #19
  %indvars.iv.next.i = add nuw nsw i64 %indvars.iv.i, 1
  %.not.i = icmp eq i64 %indvars.iv.next.i, 6
  br i1 %.not.i, label %_ZL32installExceptionOrSignalHandlersv.exit, label %8, !llvm.loop !6

_ZL32installExceptionOrSignalHandlersv.exit:      ; preds = %8
  call void @llvm.lifetime.end.p0(i64 152, ptr nonnull %1)
  br label %13

13:                                               ; preds = %_ZNSt10lock_guardISt5mutexEC2ERS0_.exit, %_ZL32installExceptionOrSignalHandlersv.exit
  %14 = call noundef i32 @pthread_mutex_unlock(ptr noundef nonnull @_ZZN12_GLOBAL__N_128getCrashRecoveryContextMutexEvE25CrashRecoveryContextMutex) #19
  ret void
}